Certificate:
    Data:
        Version: 3 (0x2)
        Serial Number:
            8b:3d:b1:c7:66:42:71:0c
        Signature Algorithm: sha1WithRSAEncryption
        Issuer: C=JP, ST=Tokyo, O=GetPerf co., OU=GetPerf co., CN=getperf.moi
        Validity
            Not Before: Oct  8 08:15:49 2010 GMT
            Not After : Oct  8 08:15:49 2011 GMT
        Subject: C=JP, ST=Tokyo, O=GetPerf co., OU=GetPerf co., CN=getperf.moi/emailAddress=frsw3nr@msn.com
        Subject Public Key Info:
            Public Key Algorithm: rsaEncryption
            RSA Public Key: (1024 bit)
                Modulus (1024 bit):
                    00:d9:55:80:8f:43:55:53:6c:2b:3b:5e:df:68:51:
                    ca:82:e6:14:0d:62:ad:b1:c1:e2:2d:96:42:65:7e:
                    5e:5a:36:b7:f4:b2:8a:7a:a8:1c:57:98:45:ce:fd:
                    44:a1:10:1a:91:34:d2:41:30:f9:f8:34:bb:70:6a:
                    43:bb:c6:58:76:03:bc:6b:47:8a:ac:42:85:e9:69:
                    f0:83:90:5d:e8:55:b7:b0:8c:63:d4:98:81:dd:cc:
                    d8:de:ce:68:be:fa:82:5e:fd:ed:d5:f7:18:b4:b2:
                    d1:15:77:0f:e4:2a:b4:5d:57:74:53:d7:cb:92:77:
                    16:b6:53:ed:07:95:58:2e:0b
                Exponent: 65537 (0x10001)
        X509v3 extensions:
            X509v3 Basic Constraints: 
                CA:FALSE
            Netscape Comment: 
                OpenSSL Generated Certificate
            X509v3 Subject Key Identifier: 
                BB:B9:9E:BB:D0:A5:77:3D:55:80:09:51:6D:39:83:CD:06:21:5C:A7
            X509v3 Authority Key Identifier: 
                keyid:BA:39:83:28:91:75:C4:CE:F8:53:40:1C:9E:20:CA:89:31:59:89:8E

    Signature Algorithm: sha1WithRSAEncryption
        78:0e:b4:fd:b7:60:66:38:21:ee:a1:31:03:cb:86:5c:54:66:
        d9:59:7e:e0:96:b1:19:a8:52:ac:62:0e:e5:19:21:05:f1:42:
        f9:7c:ca:58:af:b5:a3:21:15:af:a4:11:23:6e:e2:29:b5:48:
        84:8a:52:eb:b6:11:07:c2:8d:e6:d3:86:7a:19:f9:89:99:e9:
        5e:0f:bd:6a:af:89:05:5d:1a:ed:75:ec:2d:11:3c:47:de:36:
        54:79:8e:a6:b0:45:5a:e0:35:5c:8a:f1:af:b7:ff:e3:08:92:
        21:b0:6f:d8:3d:80:d9:06:31:59:9b:11:f4:5e:2d:0c:47:dc:
        ad:ce
-----BEGIN CERTIFICATE-----
MIIC1zCCAkCgAwIBAgIJAIs9scdmQnEMMA0GCSqGSIb3DQEBBQUAMF8xCzAJBgNV
BAYTAkpQMQ4wDAYDVQQIEwVUb2t5bzEUMBIGA1UEChMLR2V0UGVyZiBjby4xFDAS
BgNVBAsTC0dldFBlcmYgY28uMRQwEgYDVQQDEwtnZXRwZXJmLm1vaTAeFw0xMDEw
MDgwODE1NDlaFw0xMTEwMDgwODE1NDlaMH8xCzAJBgNVBAYTAkpQMQ4wDAYDVQQI
EwVUb2t5bzEUMBIGA1UEChMLR2V0UGVyZiBjby4xFDASBgNVBAsTC0dldFBlcmYg
Y28uMRQwEgYDVQQDEwtnZXRwZXJmLm1vaTEeMBwGCSqGSIb3DQEJARYPZnJzdzNu
ckBtc24uY29tMIGfMA0GCSqGSIb3DQEBAQUAA4GNADCBiQKBgQDZVYCPQ1VTbCs7
Xt9oUcqC5hQNYq2xweItlkJlfl5aNrf0sop6qBxXmEXO/UShEBqRNNJBMPn4NLtw
akO7xlh2A7xrR4qsQoXpafCDkF3oVbewjGPUmIHdzNjezmi++oJe/e3V9xi0stEV
dw/kKrRdV3RT18uSdxa2U+0HlVguCwIDAQABo3sweTAJBgNVHRMEAjAAMCwGCWCG
SAGG+EIBDQQfFh1PcGVuU1NMIEdlbmVyYXRlZCBDZXJ0aWZpY2F0ZTAdBgNVHQ4E
FgQUu7meu9Cldz1VgAlRbTmDzQYhXKcwHwYDVR0jBBgwFoAUujmDKJF1xM74U0Ac
niDKiTFZiY4wDQYJKoZIhvcNAQEFBQADgYEAeA60/bdgZjgh7qExA8uGXFRm2Vl+
4JaxGahSrGIO5RkhBfFC+XzKWK+1oyEVr6QRI27iKbVIhIpS67YRB8KN5tOGehn5
iZnpXg+9aq+JBV0a7XXsLRE8R942VHmOprBFWuA1XIrxr7f/4wiSIbBv2D2A2QYx
WZsR9F4tDEfcrc4=
-----END CERTIFICATE-----
