Certificate:
    Data:
        Version: 3 (0x2)
        Serial Number:
            8b:3d:b1:c7:66:42:70:dd
        Signature Algorithm: sha1WithRSAEncryption
        Issuer: C=JP, ST=Tokyo, O=GetPerf co., OU=GetPerf co., CN=getperf.moi
        Validity
            Not Before: Jul 11 05:27:11 2010 GMT
            Not After : Jul 11 05:27:11 2011 GMT
        Subject: C=JP, ST=Tokyo, O=GetPerf co., OU=GetPerf co., CN=centos5.getperf.moi/emailAddress=frsw3nr@msn.com
        Subject Public Key Info:
            Public Key Algorithm: rsaEncryption
            RSA Public Key: (1024 bit)
                Modulus (1024 bit):
                    00:bb:96:87:5b:a4:f8:aa:04:da:00:80:05:cd:44:
                    8b:cd:bf:3d:01:61:90:7d:59:d1:b9:87:75:61:e4:
                    56:66:3e:8f:35:7f:63:ce:1e:a9:8a:5a:48:fd:5e:
                    ef:f9:f0:bf:d1:57:44:02:46:12:b8:9c:a0:f7:06:
                    61:8b:45:d1:3c:7d:9c:22:6e:da:d1:0c:4d:e8:b8:
                    34:b0:1b:53:36:8c:a8:da:e7:0d:c6:60:d7:f2:5e:
                    89:38:45:3c:76:cf:47:c5:63:9e:65:3c:76:97:38:
                    b3:fc:7c:07:d8:9f:18:2d:f6:42:15:74:02:8e:46:
                    b6:5e:c0:36:91:43:5d:6a:cf
                Exponent: 65537 (0x10001)
        X509v3 extensions:
            X509v3 Basic Constraints: 
                CA:FALSE
            Netscape Cert Type: 
                SSL Client, S/MIME
            Netscape Comment: 
                OpenSSL Generated Certificate
            X509v3 Subject Key Identifier: 
                BB:47:FC:D2:B8:A3:0E:03:B7:1E:6F:C2:C7:30:C5:3A:25:32:80:03
            X509v3 Authority Key Identifier: 
                keyid:BA:39:83:28:91:75:C4:CE:F8:53:40:1C:9E:20:CA:89:31:59:89:8E

    Signature Algorithm: sha1WithRSAEncryption
        62:5f:05:f0:cd:bc:5f:e7:0a:02:ef:b1:66:3f:4c:96:96:cc:
        22:52:f9:a0:a1:81:7b:db:69:8d:dc:c8:d2:f3:ef:0b:04:cb:
        95:60:8a:03:d2:3b:64:be:2f:5d:80:64:ef:27:57:9d:3d:47:
        8e:7e:51:fa:f8:ca:70:c2:47:aa:d9:5c:2e:32:c4:09:13:28:
        79:ea:fb:ac:7c:55:09:33:1b:8c:c8:64:fd:ae:33:69:4e:72:
        5a:fc:9d:07:c6:bc:a8:24:c3:df:ad:53:9c:98:5c:7f:ec:07:
        98:4a:84:dd:45:7e:b0:5c:55:6c:c7:d0:74:f1:ff:41:55:17:
        26:3c
-----BEGIN CERTIFICATE-----
MIIC9TCCAl6gAwIBAgIJAIs9scdmQnDdMA0GCSqGSIb3DQEBBQUAMF8xCzAJBgNV
BAYTAkpQMQ4wDAYDVQQIEwVUb2t5bzEUMBIGA1UEChMLR2V0UGVyZiBjby4xFDAS
BgNVBAsTC0dldFBlcmYgY28uMRQwEgYDVQQDEwtnZXRwZXJmLm1vaTAeFw0xMDA3
MTEwNTI3MTFaFw0xMTA3MTEwNTI3MTFaMIGHMQswCQYDVQQGEwJKUDEOMAwGA1UE
CBMFVG9reW8xFDASBgNVBAoTC0dldFBlcmYgY28uMRQwEgYDVQQLEwtHZXRQZXJm
IGNvLjEcMBoGA1UEAxMTY2VudG9zNS5nZXRwZXJmLm1vaTEeMBwGCSqGSIb3DQEJ
ARYPZnJzdzNuckBtc24uY29tMIGfMA0GCSqGSIb3DQEBAQUAA4GNADCBiQKBgQC7
lodbpPiqBNoAgAXNRIvNvz0BYZB9WdG5h3Vh5FZmPo81f2POHqmKWkj9Xu/58L/R
V0QCRhK4nKD3BmGLRdE8fZwibtrRDE3ouDSwG1M2jKja5w3GYNfyXok4RTx2z0fF
Y55lPHaXOLP8fAfYnxgt9kIVdAKORrZewDaRQ11qzwIDAQABo4GPMIGMMAkGA1Ud
EwQCMAAwEQYJYIZIAYb4QgEBBAQDAgWgMCwGCWCGSAGG+EIBDQQfFh1PcGVuU1NM
IEdlbmVyYXRlZCBDZXJ0aWZpY2F0ZTAdBgNVHQ4EFgQUu0f80rijDgO3Hm/CxzDF
OiUygAMwHwYDVR0jBBgwFoAUujmDKJF1xM74U0AcniDKiTFZiY4wDQYJKoZIhvcN
AQEFBQADgYEAYl8F8M28X+cKAu+xZj9MlpbMIlL5oKGBe9tpjdzI0vPvCwTLlWCK
A9I7ZL4vXYBk7ydXnT1Hjn5R+vjKcMJHqtlcLjLECRMoeer7rHxVCTMbjMhk/a4z
aU5yWvydB8a8qCTD361TnJhcf+wHmEqE3UV+sFxVbMfQdPH/QVUXJjw=
-----END CERTIFICATE-----
