Certificate:
    Data:
        Version: 3 (0x2)
        Serial Number:
            8b:3d:b1:c7:66:42:71:46
        Signature Algorithm: sha1WithRSAEncryption
        Issuer: C=JP, ST=Tokyo, O=GetPerf co., OU=GetPerf co., CN=getperf.moi
        Validity
            Not Before: Jul  3 08:43:53 2011 GMT
            Not After : Jul  2 08:43:53 2012 GMT
        Subject: C=JP, ST=Tokyo, O=GetPerf co., OU=GetPerf co., CN=IZA5971__moi/emailAddress=frsw3nr@msn.com
        Subject Public Key Info:
            Public Key Algorithm: rsaEncryption
            RSA Public Key: (1024 bit)
                Modulus (1024 bit):
                    00:ce:06:a8:95:4f:3b:97:88:3c:f2:6a:89:34:5a:
                    81:5e:4a:30:e4:78:f3:84:99:43:44:28:ae:d2:82:
                    33:86:68:59:08:eb:e5:f4:2d:c0:35:ab:ea:8d:95:
                    95:58:9c:3f:08:58:f2:71:c1:32:55:72:88:c3:17:
                    bf:9d:62:f9:45:47:e0:09:9c:6b:e8:c3:4c:10:e5:
                    a1:87:0d:f2:4a:7d:a8:d1:3f:aa:d6:7b:12:54:9c:
                    14:70:4a:71:06:f6:85:85:c3:ff:e7:8a:8b:a1:90:
                    11:db:2e:32:15:dd:da:71:cf:93:e6:e9:d8:80:8d:
                    12:81:ac:55:ec:fc:2e:88:5f
                Exponent: 65537 (0x10001)
        X509v3 extensions:
            X509v3 Basic Constraints: 
                CA:FALSE
            Netscape Cert Type: 
                SSL Client, S/MIME
            Netscape Comment: 
                OpenSSL Generated Certificate
            X509v3 Subject Key Identifier: 
                1A:E0:16:DD:A3:9A:2E:54:1B:3C:C5:DB:4B:69:49:A7:33:87:46:0C
            X509v3 Authority Key Identifier: 
                keyid:BA:39:83:28:91:75:C4:CE:F8:53:40:1C:9E:20:CA:89:31:59:89:8E

    Signature Algorithm: sha1WithRSAEncryption
        53:4d:8c:34:c9:db:d4:d6:cd:74:93:cb:2d:5b:57:74:5a:a6:
        ea:13:94:2f:a6:8c:32:05:5d:45:ec:26:41:f4:95:06:27:01:
        56:6b:12:ea:65:54:10:d2:c2:09:d0:4b:48:5a:9b:04:89:73:
        1f:f5:df:8a:51:16:ac:9a:6c:74:bc:c7:fd:3d:55:32:03:85:
        6a:0f:fc:48:66:b3:95:a1:3a:dc:8e:9b:b1:fc:47:a5:bd:df:
        a0:c3:35:1d:e9:66:6d:b6:66:db:a2:4b:e4:2e:f4:c5:11:22:
        f2:3f:9b:0d:59:47:5b:3b:0f:2a:59:d5:62:e8:4e:ff:ca:f7:
        21:f0
-----BEGIN CERTIFICATE-----
MIIC7jCCAlegAwIBAgIJAIs9scdmQnFGMA0GCSqGSIb3DQEBBQUAMF8xCzAJBgNV
BAYTAkpQMQ4wDAYDVQQIEwVUb2t5bzEUMBIGA1UEChMLR2V0UGVyZiBjby4xFDAS
BgNVBAsTC0dldFBlcmYgY28uMRQwEgYDVQQDEwtnZXRwZXJmLm1vaTAeFw0xMTA3
MDMwODQzNTNaFw0xMjA3MDIwODQzNTNaMIGAMQswCQYDVQQGEwJKUDEOMAwGA1UE
CBMFVG9reW8xFDASBgNVBAoTC0dldFBlcmYgY28uMRQwEgYDVQQLEwtHZXRQZXJm
IGNvLjEVMBMGA1UEAxQMSVpBNTk3MV9fbW9pMR4wHAYJKoZIhvcNAQkBFg9mcnN3
M25yQG1zbi5jb20wgZ8wDQYJKoZIhvcNAQEBBQADgY0AMIGJAoGBAM4GqJVPO5eI
PPJqiTRagV5KMOR484SZQ0QortKCM4ZoWQjr5fQtwDWr6o2VlVicPwhY8nHBMlVy
iMMXv51i+UVH4Amca+jDTBDloYcN8kp9qNE/qtZ7ElScFHBKcQb2hYXD/+eKi6GQ
EdsuMhXd2nHPk+bp2ICNEoGsVez8LohfAgMBAAGjgY8wgYwwCQYDVR0TBAIwADAR
BglghkgBhvhCAQEEBAMCBaAwLAYJYIZIAYb4QgENBB8WHU9wZW5TU0wgR2VuZXJh
dGVkIENlcnRpZmljYXRlMB0GA1UdDgQWBBQa4Bbdo5ouVBs8xdtLaUmnM4dGDDAf
BgNVHSMEGDAWgBS6OYMokXXEzvhTQByeIMqJMVmJjjANBgkqhkiG9w0BAQUFAAOB
gQBTTYw0ydvU1s10k8stW1d0WqbqE5QvpowyBV1F7CZB9JUGJwFWaxLqZVQQ0sIJ
0EtIWpsEiXMf9d+KURasmmx0vMf9PVUyA4VqD/xIZrOVoTrcjpux/Eelvd+gwzUd
6WZttmbbokvkLvTFESLyP5sNWUdbOw8qWdVi6E7/yvch8A==
-----END CERTIFICATE-----
-----BEGIN RSA PRIVATE KEY-----
MIICXgIBAAKBgQDOBqiVTzuXiDzyaok0WoFeSjDkePOEmUNEKK7SgjOGaFkI6+X0
LcA1q+qNlZVYnD8IWPJxwTJVcojDF7+dYvlFR+AJnGvow0wQ5aGHDfJKfajRP6rW
exJUnBRwSnEG9oWFw//niouhkBHbLjIV3dpxz5Pm6diAjRKBrFXs/C6IXwIDAQAB
AoGBAIeN+f3DVAIvsWoOjpfTtKrFRcYNjqv/6zI9UklPQXd90Jb+Hx65u22U346o
jMrwgsiLPXl7FBMEeNdkGL8FD9xHMJpRXJjvnUu6LIci6u0IdYjvlUKRq70BuIjq
g5xBIdWDeNNUIPm9DOIntgZBu7ULKFnx+e30g0xGht/4V9WBAkEA7okLOZ+bdphS
h2Qo0kceK5rmpKMxSAlD3CjwzpHTULMvnaRJahfKFRrmkYsrCyF0IRw+TKh4mvB/
bZO7w7nN9QJBAN0cR81WKtcpXqsJx8VkmGZd/D5UYpHYoMVNLidZy2otxewjcBMI
g84jIYPn5yrcwyBgc1ue+wlNmtZABDMXFIMCQQC4wUsBed9HL1oU5f48SLtUmOj2
MjR0kECQYOGLjiV3hyJlXp9CXmS2jhxyNLHFMEcrch3K8F5h289HRzsSsXKVAkB2
w/QFZV1JiR0iffRiILCDe8Q7rpPrhxKEJ/q8hEzw0XlYZ4iRkKdLmC8ubOgMa9wb
jfMoqXJqAtdCccxPrPwFAkEArtvnq57Wf9wx1a5d96oAHIF3F6xbg+gjP510lZSK
Iti8IGJ3kKQdEbYWZekT/063T/ebM55d5ZaeHy+XWlzyKA==
-----END RSA PRIVATE KEY-----
