Certificate:
    Data:
        Version: 3 (0x2)
        Serial Number:
            8b:3d:b1:c7:66:42:70:db
        Signature Algorithm: sha1WithRSAEncryption
        Issuer: C=JP, ST=Tokyo, O=GetPerf co., OU=GetPerf co., CN=getperf.moi
        Validity
            Not Before: Jul 10 04:23:17 2010 GMT
            Not After : Jul  9 04:23:17 2013 GMT
        Subject: C=JP, ST=Tokyo, O=GetPerf co., OU=GetPerf co., CN=getperf.moi
        Subject Public Key Info:
            Public Key Algorithm: rsaEncryption
            RSA Public Key: (1024 bit)
                Modulus (1024 bit):
                    00:b3:55:11:e2:d8:a5:ed:c9:75:9c:70:9b:d0:f5:
                    cd:57:59:e5:5c:9d:67:a7:c0:5d:81:6c:29:5f:0b:
                    28:7e:6e:fd:0e:fc:5f:ed:4f:11:1b:a0:fb:0e:e4:
                    22:bd:ec:2e:fb:91:ac:eb:a5:9b:f4:ca:f6:15:f7:
                    34:30:6c:4e:a1:51:70:ab:eb:ec:2f:33:7b:45:e8:
                    21:30:5e:7d:64:72:56:eb:5e:d8:41:0f:72:0d:14:
                    33:66:6e:99:9b:b1:51:46:00:05:da:d6:45:8f:bc:
                    68:89:8e:d8:38:c6:b1:43:4b:78:21:ac:77:b4:84:
                    97:89:81:fd:d6:29:0b:69:b1
                Exponent: 65537 (0x10001)
        X509v3 extensions:
            X509v3 Subject Key Identifier: 
                BA:39:83:28:91:75:C4:CE:F8:53:40:1C:9E:20:CA:89:31:59:89:8E
            X509v3 Authority Key Identifier: 
                keyid:BA:39:83:28:91:75:C4:CE:F8:53:40:1C:9E:20:CA:89:31:59:89:8E
                DirName:/C=JP/ST=Tokyo/O=GetPerf co./OU=GetPerf co./CN=getperf.moi
                serial:8B:3D:B1:C7:66:42:70:DB

            X509v3 Basic Constraints: 
                CA:TRUE
    Signature Algorithm: sha1WithRSAEncryption
        80:b1:01:90:5a:c7:4f:b5:84:4e:38:54:e2:17:69:14:20:7f:
        09:a4:a0:b2:29:dd:bb:de:b4:13:7a:81:36:3c:bd:ca:40:34:
        dc:73:4b:e5:92:55:71:19:40:25:05:a5:2c:8d:76:ba:cc:76:
        16:28:d7:b9:ec:b3:6f:92:0d:a0:48:17:aa:b2:86:5b:62:af:
        4e:fd:95:c9:70:85:a6:47:fd:e8:a9:e3:de:e0:ae:e4:0d:41:
        4c:d1:24:1b:d4:04:23:1a:e0:6e:87:0e:b9:02:06:e6:be:d5:
        fe:2d:de:5b:d4:f2:98:34:76:d0:6b:1c:5d:0e:61:55:c0:81:
        00:d4
-----BEGIN CERTIFICATE-----
MIIDATCCAmqgAwIBAgIJAIs9scdmQnDbMA0GCSqGSIb3DQEBBQUAMF8xCzAJBgNV
BAYTAkpQMQ4wDAYDVQQIEwVUb2t5bzEUMBIGA1UEChMLR2V0UGVyZiBjby4xFDAS
BgNVBAsTC0dldFBlcmYgY28uMRQwEgYDVQQDEwtnZXRwZXJmLm1vaTAeFw0xMDA3
MTAwNDIzMTdaFw0xMzA3MDkwNDIzMTdaMF8xCzAJBgNVBAYTAkpQMQ4wDAYDVQQI
EwVUb2t5bzEUMBIGA1UEChMLR2V0UGVyZiBjby4xFDASBgNVBAsTC0dldFBlcmYg
Y28uMRQwEgYDVQQDEwtnZXRwZXJmLm1vaTCBnzANBgkqhkiG9w0BAQEFAAOBjQAw
gYkCgYEAs1UR4til7cl1nHCb0PXNV1nlXJ1np8BdgWwpXwsofm79Dvxf7U8RG6D7
DuQivewu+5Gs66Wb9Mr2Ffc0MGxOoVFwq+vsLzN7ReghMF59ZHJW617YQQ9yDRQz
Zm6Zm7FRRgAF2tZFj7xoiY7YOMaxQ0t4Iax3tISXiYH91ikLabECAwEAAaOBxDCB
wTAdBgNVHQ4EFgQUujmDKJF1xM74U0AcniDKiTFZiY4wgZEGA1UdIwSBiTCBhoAU
ujmDKJF1xM74U0AcniDKiTFZiY6hY6RhMF8xCzAJBgNVBAYTAkpQMQ4wDAYDVQQI
EwVUb2t5bzEUMBIGA1UEChMLR2V0UGVyZiBjby4xFDASBgNVBAsTC0dldFBlcmYg
Y28uMRQwEgYDVQQDEwtnZXRwZXJmLm1vaYIJAIs9scdmQnDbMAwGA1UdEwQFMAMB
Af8wDQYJKoZIhvcNAQEFBQADgYEAgLEBkFrHT7WETjhU4hdpFCB/CaSgsindu960
E3qBNjy9ykA03HNL5ZJVcRlAJQWlLI12usx2FijXueyzb5INoEgXqrKGW2KvTv2V
yXCFpkf96Knj3uCu5A1BTNEkG9QEIxrgbocOuQIG5r7V/i3eW9TymDR20GscXQ5h
VcCBANQ=
-----END CERTIFICATE-----
