Certificate:
    Data:
        Version: 3 (0x2)
        Serial Number:
            8b:3d:b1:c7:66:42:71:52
        Signature Algorithm: sha1WithRSAEncryption
        Issuer: C=JP, ST=Tokyo, O=GetPerf co., OU=GetPerf co., CN=getperf.moi
        Validity
            Not Before: Nov 15 18:49:35 2011 GMT
            Not After : Nov 14 18:49:35 2012 GMT
        Subject: C=JP, ST=Tokyo, O=GetPerf co., OU=GetPerf co., CN=IZA5971__win7/emailAddress=frsw3nr@msn.com
        Subject Public Key Info:
            Public Key Algorithm: rsaEncryption
            RSA Public Key: (1024 bit)
                Modulus (1024 bit):
                    00:dc:e7:9d:8e:89:f6:da:4b:8d:e4:f4:07:ce:cc:
                    3d:af:3f:be:71:cf:26:47:99:a4:90:7f:a8:d6:d8:
                    30:88:70:2a:c9:9f:c7:9e:ce:1a:15:8e:bf:6d:31:
                    ea:66:6c:4a:94:e3:a0:37:33:e2:c9:70:59:4e:fd:
                    2c:74:06:5a:c5:7c:02:51:3d:7c:fa:70:5f:38:0c:
                    f1:27:7b:89:73:03:81:29:0c:f8:b2:a7:cb:31:dc:
                    0e:2f:1c:0d:d0:74:a7:dc:33:ab:86:bc:06:37:c3:
                    b1:0a:5f:ab:6f:73:ed:da:7a:0e:d2:92:62:0a:3d:
                    d2:59:33:b7:27:a8:e2:d2:e1
                Exponent: 65537 (0x10001)
        X509v3 extensions:
            X509v3 Basic Constraints: 
                CA:FALSE
            Netscape Cert Type: 
                SSL Client, S/MIME
            Netscape Comment: 
                OpenSSL Generated Certificate
            X509v3 Subject Key Identifier: 
                5C:04:50:6E:A0:8C:EE:FB:3A:F1:B1:8F:56:7E:4B:3B:53:8D:97:2E
            X509v3 Authority Key Identifier: 
                keyid:BA:39:83:28:91:75:C4:CE:F8:53:40:1C:9E:20:CA:89:31:59:89:8E

    Signature Algorithm: sha1WithRSAEncryption
        0e:e7:0a:9d:44:c7:9b:97:be:7c:c8:52:2b:41:85:f2:3e:ea:
        bf:70:fe:6e:90:76:f2:46:a1:01:ac:39:aa:6b:9e:cd:2c:3a:
        f0:cf:fb:54:07:8f:00:b4:4f:ac:61:50:9a:26:b2:14:3c:61:
        b9:73:0a:fa:c4:0e:12:70:b2:62:cd:d4:6c:20:79:fb:e5:31:
        22:1c:bd:73:97:e4:17:50:7d:91:ed:65:ec:03:7f:a3:2b:9b:
        6b:c9:c5:47:96:b4:fb:8c:a9:02:1a:26:01:56:e4:79:11:ed:
        18:38:ec:86:02:b2:cc:a2:98:c6:b6:8c:34:51:02:81:7f:3e:
        72:d6
-----BEGIN CERTIFICATE-----
MIIC7zCCAligAwIBAgIJAIs9scdmQnFSMA0GCSqGSIb3DQEBBQUAMF8xCzAJBgNV
BAYTAkpQMQ4wDAYDVQQIEwVUb2t5bzEUMBIGA1UEChMLR2V0UGVyZiBjby4xFDAS
BgNVBAsTC0dldFBlcmYgY28uMRQwEgYDVQQDEwtnZXRwZXJmLm1vaTAeFw0xMTEx
MTUxODQ5MzVaFw0xMjExMTQxODQ5MzVaMIGBMQswCQYDVQQGEwJKUDEOMAwGA1UE
CBMFVG9reW8xFDASBgNVBAoTC0dldFBlcmYgY28uMRQwEgYDVQQLEwtHZXRQZXJm
IGNvLjEWMBQGA1UEAxQNSVpBNTk3MV9fd2luNzEeMBwGCSqGSIb3DQEJARYPZnJz
dzNuckBtc24uY29tMIGfMA0GCSqGSIb3DQEBAQUAA4GNADCBiQKBgQDc552Oifba
S43k9AfOzD2vP75xzyZHmaSQf6jW2DCIcCrJn8eezhoVjr9tMepmbEqU46A3M+LJ
cFlO/Sx0BlrFfAJRPXz6cF84DPEne4lzA4EpDPiyp8sx3A4vHA3QdKfcM6uGvAY3
w7EKX6tvc+3aeg7SkmIKPdJZM7cnqOLS4QIDAQABo4GPMIGMMAkGA1UdEwQCMAAw
EQYJYIZIAYb4QgEBBAQDAgWgMCwGCWCGSAGG+EIBDQQfFh1PcGVuU1NMIEdlbmVy
YXRlZCBDZXJ0aWZpY2F0ZTAdBgNVHQ4EFgQUXARQbqCM7vs68bGPVn5LO1ONly4w
HwYDVR0jBBgwFoAUujmDKJF1xM74U0AcniDKiTFZiY4wDQYJKoZIhvcNAQEFBQAD
gYEADucKnUTHm5e+fMhSK0GF8j7qv3D+bpB28kahAaw5qmuezSw68M/7VAePALRP
rGFQmiayFDxhuXMK+sQOEnCyYs3UbCB5++UxIhy9c5fkF1B9ke1l7AN/oyuba8nF
R5a0+4ypAhomAVbkeRHtGDjshgKyzKKYxraMNFECgX8+ctY=
-----END CERTIFICATE-----
-----BEGIN RSA PRIVATE KEY-----
MIICXgIBAAKBgQDc552OifbaS43k9AfOzD2vP75xzyZHmaSQf6jW2DCIcCrJn8ee
zhoVjr9tMepmbEqU46A3M+LJcFlO/Sx0BlrFfAJRPXz6cF84DPEne4lzA4EpDPiy
p8sx3A4vHA3QdKfcM6uGvAY3w7EKX6tvc+3aeg7SkmIKPdJZM7cnqOLS4QIDAQAB
AoGAIxzJpWt2ilIyFq9XQl6ie2Wlbs+fZQgd6T3xZ1zrsfQqSOwVvb9C1CRhdwjV
GjyiSjI4OC4OITizaWPCmhqceLXHAQiqEeL4kc/5AiIgyICyzfmMvXf2Bk1Oirt1
3ikovi8O5UA8NWG/wfbvCUNn0hGfQfSjj9Mm5BHgFv32+rECQQD4T1KAYk0hyg29
iW4FPHva/a/JIN/tSH/JTPb9NgtbuX842eLbaccuTgwcTc5pcD1ryPc/WKIAHcGC
cScr8PWNAkEA478EWZi7+jRrAN4Amp/3DFF4ngqFeK+c1QaRy53OaSWf2pMD0Nja
5Z8P5CMDKLEJqtVi6IolNPaxxcPna4WLpQJBANw7DkNL7HlBifpHP8tpH7jVM+nB
PJppqNzTZGSkYGKUHWBA79IG+V/6XQdlguNFZ1SHw7LtW5Ga0pxs238/kakCQQCG
JRsg0w/V3k4wopLkgNh5Tvumyze20GmmKEp0Dq1nzZuMmQ+kUjcNDVXE4MKZkz3I
fAvYQJaNzckEXdHPyUdpAkEAqhZi6JVkP7tIriSulgUtbyQVNtsc3Sli22n2PWK0
8Ijs3J6zQhH7SE8HrHVXOMfxaLg3bLlnCTX2rL21hh4vMA==
-----END RSA PRIVATE KEY-----
