Certificate:
    Data:
        Version: 3 (0x2)
        Serial Number:
            8b:3d:b1:c7:66:42:71:47
        Signature Algorithm: sha1WithRSAEncryption
        Issuer: C=JP, ST=Tokyo, O=GetPerf co., OU=GetPerf co., CN=getperf.moi
        Validity
            Not Before: Jul 11 22:48:01 2011 GMT
            Not After : Jul 10 22:48:01 2012 GMT
        Subject: C=JP, ST=Tokyo, O=GetPerf co., OU=GetPerf co., CN=getperf.moi/emailAddress=frsw3nr@msn.com
        Subject Public Key Info:
            Public Key Algorithm: rsaEncryption
            RSA Public Key: (1024 bit)
                Modulus (1024 bit):
                    00:c5:b0:e5:4e:8d:8c:33:bb:aa:78:7d:bb:d4:2a:
                    b0:ca:df:43:6a:e4:0c:11:9b:51:89:f6:ad:ec:db:
                    bb:f3:77:c1:7d:33:75:c6:02:2b:7f:d2:a8:c8:6a:
                    07:17:a4:f4:31:fa:b1:1b:a9:8b:a9:b6:d5:5b:bc:
                    dd:88:fd:6d:bc:8b:a7:43:57:d7:f8:b0:41:a3:c6:
                    28:79:2d:e7:c8:87:6d:4a:b8:17:67:42:56:70:51:
                    e5:32:cd:2b:89:69:db:ca:40:d9:81:8a:4b:44:02:
                    ec:91:78:59:76:e0:8e:e6:94:5c:68:61:0c:22:f7:
                    5c:60:d2:39:4b:c0:78:1d:f5
                Exponent: 65537 (0x10001)
        X509v3 extensions:
            X509v3 Basic Constraints: 
                CA:FALSE
            Netscape Comment: 
                OpenSSL Generated Certificate
            X509v3 Subject Key Identifier: 
                F8:68:50:E2:B6:1A:CA:86:AD:A3:8D:BE:2D:86:AF:F7:4E:75:88:46
            X509v3 Authority Key Identifier: 
                keyid:BA:39:83:28:91:75:C4:CE:F8:53:40:1C:9E:20:CA:89:31:59:89:8E

    Signature Algorithm: sha1WithRSAEncryption
        73:04:19:a9:23:ca:60:cb:ab:8e:52:7e:1d:4d:e8:03:10:94:
        d0:ec:0b:f5:e7:11:29:0c:19:c1:41:5c:e4:65:78:ae:d3:92:
        64:c4:ac:b3:fb:04:cc:09:d9:a5:9a:cf:72:7f:77:f7:a1:93:
        32:fe:c1:29:35:fe:4a:a7:f9:d2:5b:f6:f1:2e:b0:3e:ce:90:
        fd:6d:6b:41:fa:70:d3:79:73:19:ae:b9:bb:cc:76:98:9a:2b:
        3c:68:9f:a2:40:5b:ef:42:37:00:f7:b1:1a:70:c7:4c:db:a8:
        3e:49:86:ce:6a:fc:ab:f8:95:73:cc:cb:32:0a:76:84:70:2e:
        bc:e2
-----BEGIN CERTIFICATE-----
MIIC1zCCAkCgAwIBAgIJAIs9scdmQnFHMA0GCSqGSIb3DQEBBQUAMF8xCzAJBgNV
BAYTAkpQMQ4wDAYDVQQIEwVUb2t5bzEUMBIGA1UEChMLR2V0UGVyZiBjby4xFDAS
BgNVBAsTC0dldFBlcmYgY28uMRQwEgYDVQQDEwtnZXRwZXJmLm1vaTAeFw0xMTA3
MTEyMjQ4MDFaFw0xMjA3MTAyMjQ4MDFaMH8xCzAJBgNVBAYTAkpQMQ4wDAYDVQQI
EwVUb2t5bzEUMBIGA1UEChMLR2V0UGVyZiBjby4xFDASBgNVBAsTC0dldFBlcmYg
Y28uMRQwEgYDVQQDEwtnZXRwZXJmLm1vaTEeMBwGCSqGSIb3DQEJARYPZnJzdzNu
ckBtc24uY29tMIGfMA0GCSqGSIb3DQEBAQUAA4GNADCBiQKBgQDFsOVOjYwzu6p4
fbvUKrDK30Nq5AwRm1GJ9q3s27vzd8F9M3XGAit/0qjIagcXpPQx+rEbqYupttVb
vN2I/W28i6dDV9f4sEGjxih5LefIh21KuBdnQlZwUeUyzSuJadvKQNmBiktEAuyR
eFl24I7mlFxoYQwi91xg0jlLwHgd9QIDAQABo3sweTAJBgNVHRMEAjAAMCwGCWCG
SAGG+EIBDQQfFh1PcGVuU1NMIEdlbmVyYXRlZCBDZXJ0aWZpY2F0ZTAdBgNVHQ4E
FgQU+GhQ4rYayoato42+LYav9051iEYwHwYDVR0jBBgwFoAUujmDKJF1xM74U0Ac
niDKiTFZiY4wDQYJKoZIhvcNAQEFBQADgYEAcwQZqSPKYMurjlJ+HU3oAxCU0OwL
9ecRKQwZwUFc5GV4rtOSZMSss/sEzAnZpZrPcn9396GTMv7BKTX+Sqf50lv28S6w
Ps6Q/W1rQfpw03lzGa65u8x2mJorPGifokBb70I3APexGnDHTNuoPkmGzmr8q/iV
c8zLMgp2hHAuvOI=
-----END CERTIFICATE-----
