Certificate:
    Data:
        Version: 3 (0x2)
        Serial Number:
            8b:3d:b1:c7:66:42:71:53
        Signature Algorithm: sha1WithRSAEncryption
        Issuer: C=JP, ST=Tokyo, O=GetPerf co., OU=GetPerf co., CN=getperf.moi
        Validity
            Not Before: Nov 28 18:54:39 2011 GMT
            Not After : Nov 27 18:54:39 2012 GMT
        Subject: C=JP, ST=Tokyo, O=GetPerf co., OU=GetPerf co., CN=IZA5971__moi/emailAddress=frsw3nr@msn.com
        Subject Public Key Info:
            Public Key Algorithm: rsaEncryption
            RSA Public Key: (1024 bit)
                Modulus (1024 bit):
                    00:c1:54:ac:45:ce:90:17:f9:d4:9c:f9:49:2c:16:
                    63:aa:2a:8e:18:69:a7:c4:1f:7b:88:4c:8e:0b:d7:
                    4f:0d:61:9b:ce:b8:3d:08:3f:73:6a:c1:7d:4a:bd:
                    c7:d8:1f:b5:b6:6d:90:d1:fe:3e:0d:c6:03:3d:53:
                    cc:d2:62:76:a4:e7:4d:e9:0e:35:ab:e1:b9:09:6f:
                    8b:8e:8b:aa:eb:d9:b8:0c:2d:b3:a7:cc:34:9e:f8:
                    8c:fb:2f:35:f1:24:de:c7:ee:5a:bc:4d:69:f3:56:
                    96:be:91:c4:99:ef:af:43:50:e4:89:db:0e:c5:2b:
                    2c:ef:eb:94:61:bf:1c:cd:b7
                Exponent: 65537 (0x10001)
        X509v3 extensions:
            X509v3 Basic Constraints: 
                CA:FALSE
            Netscape Cert Type: 
                SSL Client, S/MIME
            Netscape Comment: 
                OpenSSL Generated Certificate
            X509v3 Subject Key Identifier: 
                EC:31:DB:47:FC:7F:A5:B7:29:71:BC:8A:78:E5:CD:81:93:BE:6C:02
            X509v3 Authority Key Identifier: 
                keyid:BA:39:83:28:91:75:C4:CE:F8:53:40:1C:9E:20:CA:89:31:59:89:8E

    Signature Algorithm: sha1WithRSAEncryption
        39:b2:09:1f:5e:d3:0d:79:03:db:00:19:42:b2:53:a1:bc:40:
        7a:42:c8:4e:f8:d9:bd:07:3c:51:63:02:32:c6:c8:03:13:a2:
        f8:2f:84:ec:0e:ea:5f:ec:82:f8:e7:a0:28:08:e3:3c:77:ab:
        8b:75:45:3c:c2:e7:d4:d0:a2:57:25:f3:8a:29:d3:62:c0:ff:
        5c:86:c0:39:f9:e8:8c:1f:55:7c:5b:51:e6:08:d6:8d:94:72:
        62:e2:0b:ad:d1:51:3b:7b:15:74:94:53:a7:dc:0e:e6:13:b2:
        75:c6:a0:b0:05:6e:3e:d2:a2:11:10:37:53:93:d2:26:5d:ae:
        44:10
-----BEGIN CERTIFICATE-----
MIIC7jCCAlegAwIBAgIJAIs9scdmQnFTMA0GCSqGSIb3DQEBBQUAMF8xCzAJBgNV
BAYTAkpQMQ4wDAYDVQQIEwVUb2t5bzEUMBIGA1UEChMLR2V0UGVyZiBjby4xFDAS
BgNVBAsTC0dldFBlcmYgY28uMRQwEgYDVQQDEwtnZXRwZXJmLm1vaTAeFw0xMTEx
MjgxODU0MzlaFw0xMjExMjcxODU0MzlaMIGAMQswCQYDVQQGEwJKUDEOMAwGA1UE
CBMFVG9reW8xFDASBgNVBAoTC0dldFBlcmYgY28uMRQwEgYDVQQLEwtHZXRQZXJm
IGNvLjEVMBMGA1UEAxQMSVpBNTk3MV9fbW9pMR4wHAYJKoZIhvcNAQkBFg9mcnN3
M25yQG1zbi5jb20wgZ8wDQYJKoZIhvcNAQEBBQADgY0AMIGJAoGBAMFUrEXOkBf5
1Jz5SSwWY6oqjhhpp8Qfe4hMjgvXTw1hm864PQg/c2rBfUq9x9gftbZtkNH+Pg3G
Az1TzNJidqTnTekONavhuQlvi46LquvZuAwts6fMNJ74jPsvNfEk3sfuWrxNafNW
lr6RxJnvr0NQ5InbDsUrLO/rlGG/HM23AgMBAAGjgY8wgYwwCQYDVR0TBAIwADAR
BglghkgBhvhCAQEEBAMCBaAwLAYJYIZIAYb4QgENBB8WHU9wZW5TU0wgR2VuZXJh
dGVkIENlcnRpZmljYXRlMB0GA1UdDgQWBBTsMdtH/H+ltylxvIp45c2Bk75sAjAf
BgNVHSMEGDAWgBS6OYMokXXEzvhTQByeIMqJMVmJjjANBgkqhkiG9w0BAQUFAAOB
gQA5sgkfXtMNeQPbABlCslOhvEB6QshO+Nm9BzxRYwIyxsgDE6L4L4TsDupf7IL4
56AoCOM8d6uLdUU8wufU0KJXJfOKKdNiwP9chsA5+eiMH1V8W1HmCNaNlHJi4gut
0VE7exV0lFOn3A7mE7J1xqCwBW4+0qIREDdTk9ImXa5EEA==
-----END CERTIFICATE-----
-----BEGIN RSA PRIVATE KEY-----
MIICXgIBAAKBgQDBVKxFzpAX+dSc+UksFmOqKo4YaafEH3uITI4L108NYZvOuD0I
P3NqwX1KvcfYH7W2bZDR/j4NxgM9U8zSYnak503pDjWr4bkJb4uOi6rr2bgMLbOn
zDSe+Iz7LzXxJN7H7lq8TWnzVpa+kcSZ769DUOSJ2w7FKyzv65RhvxzNtwIDAQAB
AoGBAKZYOYYyzk6i2mpaH7h8ZzKyPOMKfZxFTmAfJpVPo6gq1QnQAkuHdMJlS220
zy/JUOtvaI0WicQGHSF2aiSXLecDlXhVYkFqIHFbXixKP/UsfD/ac2fa45y+RmHM
MEBvI354LxzNq9vufyxJ/IuZT1hTk4TMKMwykOM3EazIu4jxAkEA7kDBzOTFT60B
M+Pn27vIsdRDoq/VdlTwVuyIqnHOymtg0NACFXRM1yV46qxP77U+JMmfjHwJ8Azl
5mP2RJQkaQJBAM+7S39tm3lyKyCj3vY6jCzWGmc3eaI5Oomo+2TPQ1/uRtoSaUcf
1RNUOOdqtUmM5qfN5hmTiIcdDYn0SiUYnR8CQBhjzrMf9Eb8yfO68ABhj+EMfsQH
xg1wEo6DdlYkgmvcZDPcJ2p01mzr7B3x99jtL+hqL4gdJpNJbruQHiTVGYkCQQCZ
NbppMZ4J5HqKiFJZqLTaHM88cV30l+Dkxw0jPPqkNklrbUjYfFHa/7M4eytaI+G6
wdGD65w2iucBaHuHALBhAkEAxgtDSvOtvB3ZkIZdLe4k3H6qxmD68U65/lZQelqm
6ycTdse7fMVk2KUqMjRDwddeYHW6Zxj9qimyc0eqGqooBg==
-----END RSA PRIVATE KEY-----
