Certificate:
    Data:
        Version: 3 (0x2)
        Serial Number:
            bc:2e:df:99:38:57:64:e2
        Signature Algorithm: sha1WithRSAEncryption
        Issuer: C=JP, ST=Tokyo, O=Getperf co., CN=getperf/emailAddress=frsw3nr@msn.com
        Validity
            Not Before: May 15 18:29:33 2011 GMT
            Not After : May 14 18:29:33 2014 GMT
        Subject: C=JP, ST=Tokyo, O=Getperf co., CN=getperf/emailAddress=frsw3nr@msn.com
        Subject Public Key Info:
            Public Key Algorithm: rsaEncryption
            RSA Public Key: (1024 bit)
                Modulus (1024 bit):
                    00:9d:6f:b7:e0:de:c8:a2:31:3b:8a:2c:c6:d0:08:
                    94:18:c9:33:c1:69:73:5d:12:c8:e8:e6:b2:ed:e1:
                    4e:fd:40:59:54:12:4c:7d:03:ff:0e:e4:d1:83:96:
                    3e:0d:ab:16:20:ac:f5:31:c1:6d:82:38:a1:12:f3:
                    aa:a8:9a:89:0f:10:c5:1b:7c:f7:ad:51:75:13:18:
                    10:d5:a1:22:4b:cb:87:55:b6:70:49:05:44:22:49:
                    29:c5:72:f5:1e:df:0f:f7:33:ea:63:28:05:bf:09:
                    a1:cd:0f:35:97:b6:09:dd:6c:c1:14:67:a3:9e:3c:
                    82:cc:c2:e7:3d:3a:c1:71:cd
                Exponent: 65537 (0x10001)
        X509v3 extensions:
            X509v3 Subject Key Identifier: 
                A0:AE:12:B9:9F:82:8F:87:31:4C:93:F3:B8:69:D3:49:3D:CF:11:F4
            X509v3 Authority Key Identifier: 
                keyid:A0:AE:12:B9:9F:82:8F:87:31:4C:93:F3:B8:69:D3:49:3D:CF:11:F4
                DirName:/C=JP/ST=Tokyo/O=Getperf co./CN=getperf/emailAddress=frsw3nr@msn.com
                serial:BC:2E:DF:99:38:57:64:E2

            X509v3 Basic Constraints: 
                CA:TRUE
    Signature Algorithm: sha1WithRSAEncryption
        14:3b:f7:d0:69:4a:db:1e:5b:b0:5d:85:bb:42:9a:a4:12:55:
        b6:ff:08:01:a9:aa:c3:80:1d:e2:9c:0f:1b:c7:36:80:ea:15:
        db:c4:1a:dc:ae:60:15:77:1f:3c:7e:02:29:f8:1e:f2:93:6d:
        8c:07:45:e9:db:ad:16:2f:b8:05:01:9d:5a:43:c8:8a:a1:1b:
        36:23:24:be:2d:c8:b2:c5:af:f1:bd:29:c7:31:15:0b:41:e8:
        4f:46:38:ab:3f:99:06:0c:d6:d8:47:fb:4a:8e:41:71:f1:44:
        34:2a:45:53:93:1c:03:11:6b:5d:b6:84:8c:40:ed:83:83:b7:
        21:81
-----BEGIN CERTIFICATE-----
MIIDEzCCAnygAwIBAgIJALwu35k4V2TiMA0GCSqGSIb3DQEBBQUAMGUxCzAJBgNV
BAYTAkpQMQ4wDAYDVQQIEwVUb2t5bzEUMBIGA1UEChMLR2V0cGVyZiBjby4xEDAO
BgNVBAMTB2dldHBlcmYxHjAcBgkqhkiG9w0BCQEWD2Zyc3czbnJAbXNuLmNvbTAe
Fw0xMTA1MTUxODI5MzNaFw0xNDA1MTQxODI5MzNaMGUxCzAJBgNVBAYTAkpQMQ4w
DAYDVQQIEwVUb2t5bzEUMBIGA1UEChMLR2V0cGVyZiBjby4xEDAOBgNVBAMTB2dl
dHBlcmYxHjAcBgkqhkiG9w0BCQEWD2Zyc3czbnJAbXNuLmNvbTCBnzANBgkqhkiG
9w0BAQEFAAOBjQAwgYkCgYEAnW+34N7IojE7iizG0AiUGMkzwWlzXRLI6Oay7eFO
/UBZVBJMfQP/DuTRg5Y+DasWIKz1McFtgjihEvOqqJqJDxDFG3z3rVF1ExgQ1aEi
S8uHVbZwSQVEIkkpxXL1Ht8P9zPqYygFvwmhzQ81l7YJ3WzBFGejnjyCzMLnPTrB
cc0CAwEAAaOByjCBxzAdBgNVHQ4EFgQUoK4SuZ+Cj4cxTJPzuGnTST3PEfQwgZcG
A1UdIwSBjzCBjIAUoK4SuZ+Cj4cxTJPzuGnTST3PEfShaaRnMGUxCzAJBgNVBAYT
AkpQMQ4wDAYDVQQIEwVUb2t5bzEUMBIGA1UEChMLR2V0cGVyZiBjby4xEDAOBgNV
BAMTB2dldHBlcmYxHjAcBgkqhkiG9w0BCQEWD2Zyc3czbnJAbXNuLmNvbYIJALwu
35k4V2TiMAwGA1UdEwQFMAMBAf8wDQYJKoZIhvcNAQEFBQADgYEAFDv30GlK2x5b
sF2Fu0KapBJVtv8IAamqw4Ad4pwPG8c2gOoV28Qa3K5gFXcfPH4CKfge8pNtjAdF
6dutFi+4BQGdWkPIiqEbNiMkvi3IssWv8b0pxzEVC0HoT0Y4qz+ZBgzW2Ef7So5B
cfFENCpFU5McAxFrXbaEjEDtg4O3IYE=
-----END CERTIFICATE-----
