Certificate:
    Data:
        Version: 3 (0x2)
        Serial Number:
            bc:2e:df:99:38:57:64:e3
        Signature Algorithm: sha1WithRSAEncryption
        Issuer: C=JP, ST=Tokyo, O=Getperf co., CN=getperf/emailAddress=frsw3nr@msn.com
        Validity
            Not Before: May 15 18:33:10 2011 GMT
            Not After : May 14 18:33:10 2012 GMT
        Subject: C=JP, ST=Tokyo, O=Getperf co., CN=getperf.cm/emailAddress=frsw3nr@msn.com
        Subject Public Key Info:
            Public Key Algorithm: rsaEncryption
            RSA Public Key: (1024 bit)
                Modulus (1024 bit):
                    00:ba:8e:36:78:e6:9a:45:25:79:de:e2:3a:4b:2e:
                    69:31:fc:04:63:9d:e9:78:76:29:47:3c:c0:9a:cc:
                    a8:45:0c:58:c2:48:53:60:93:9a:24:63:b2:32:9b:
                    6c:7b:fa:d7:8e:0b:8b:ab:84:ea:18:a5:f7:18:0f:
                    6d:8b:b6:65:d5:b0:25:ec:9a:bb:07:31:71:95:df:
                    ca:7b:58:0d:57:1b:7f:0c:a6:56:b2:0d:a6:ac:48:
                    91:43:d8:c0:ea:eb:be:47:54:ba:75:fc:1c:12:a8:
                    dc:7c:a8:42:dc:7d:8e:61:0a:4e:c7:30:c1:2a:ac:
                    6e:03:a1:91:27:11:88:e4:0d
                Exponent: 65537 (0x10001)
        X509v3 extensions:
            X509v3 Basic Constraints: 
                CA:FALSE
            Netscape Comment: 
                OpenSSL Generated Certificate
            X509v3 Subject Key Identifier: 
                39:C9:E7:14:3D:8E:BB:BD:73:34:8F:4F:64:C9:0E:BE:B7:72:BE:75
            X509v3 Authority Key Identifier: 
                keyid:A0:AE:12:B9:9F:82:8F:87:31:4C:93:F3:B8:69:D3:49:3D:CF:11:F4

    Signature Algorithm: sha1WithRSAEncryption
        1e:0f:0a:d5:0c:2a:32:2d:53:96:10:a3:e6:b9:70:27:61:b0:
        03:45:f3:0d:75:4d:6c:c5:19:83:8c:c6:95:64:3e:0b:7b:25:
        c5:0b:48:46:4e:f5:53:d1:19:53:44:d2:1c:ff:fd:c3:1d:ee:
        bf:e6:5c:5a:dc:35:14:86:a9:e2:60:e7:80:f0:e0:df:77:d1:
        6a:e4:9d:6f:6d:b2:f6:c9:3a:53:15:ee:07:ed:ee:1b:f8:d7:
        f5:19:ef:42:24:c2:e7:23:ea:b5:d4:f1:22:1f:ef:a9:2c:a7:
        71:40:e4:5e:4f:4d:c2:81:1b:b7:12:7f:27:24:c6:9a:48:53:
        99:6a
-----BEGIN CERTIFICATE-----
MIICxjCCAi+gAwIBAgIJALwu35k4V2TjMA0GCSqGSIb3DQEBBQUAMGUxCzAJBgNV
BAYTAkpQMQ4wDAYDVQQIEwVUb2t5bzEUMBIGA1UEChMLR2V0cGVyZiBjby4xEDAO
BgNVBAMTB2dldHBlcmYxHjAcBgkqhkiG9w0BCQEWD2Zyc3czbnJAbXNuLmNvbTAe
Fw0xMTA1MTUxODMzMTBaFw0xMjA1MTQxODMzMTBaMGgxCzAJBgNVBAYTAkpQMQ4w
DAYDVQQIEwVUb2t5bzEUMBIGA1UEChMLR2V0cGVyZiBjby4xEzARBgNVBAMTCmdl
dHBlcmYuY20xHjAcBgkqhkiG9w0BCQEWD2Zyc3czbnJAbXNuLmNvbTCBnzANBgkq
hkiG9w0BAQEFAAOBjQAwgYkCgYEAuo42eOaaRSV53uI6Sy5pMfwEY53peHYpRzzA
msyoRQxYwkhTYJOaJGOyMptse/rXjguLq4TqGKX3GA9ti7Zl1bAl7Jq7BzFxld/K
e1gNVxt/DKZWsg2mrEiRQ9jA6uu+R1S6dfwcEqjcfKhC3H2OYQpOxzDBKqxuA6GR
JxGI5A0CAwEAAaN7MHkwCQYDVR0TBAIwADAsBglghkgBhvhCAQ0EHxYdT3BlblNT
TCBHZW5lcmF0ZWQgQ2VydGlmaWNhdGUwHQYDVR0OBBYEFDnJ5xQ9jru9czSPT2TJ
Dr63cr51MB8GA1UdIwQYMBaAFKCuErmfgo+HMUyT87hp00k9zxH0MA0GCSqGSIb3
DQEBBQUAA4GBAB4PCtUMKjItU5YQo+a5cCdhsANF8w11TWzFGYOMxpVkPgt7JcUL
SEZO9VPRGVNE0hz//cMd7r/mXFrcNRSGqeJg54Dw4N930WrknW9tsvbJOlMV7gft
7hv41/UZ70Ikwucj6rXU8SIf76ksp3FA5F5PTcKBG7cSfyckxppIU5lq
-----END CERTIFICATE-----
