Certificate:
    Data:
        Version: 3 (0x2)
        Serial Number:
            bc:2e:df:99:38:57:65:08
        Signature Algorithm: sha1WithRSAEncryption
        Issuer: C=JP, ST=Tokyo, O=Getperf co., CN=getperf/emailAddress=frsw3nr@msn.com
        Validity
            Not Before: Feb 10 05:15:30 2012 GMT
            Not After : Feb  9 05:15:30 2013 GMT
        Subject: C=JP, ST=Tokyo, O=Getperf co., OU=Getperf co., CN=IZA5971__maascacti01/emailAddress=frsw3nr@msn.com
        Subject Public Key Info:
            Public Key Algorithm: rsaEncryption
            RSA Public Key: (1024 bit)
                Modulus (1024 bit):
                    00:c1:4e:cc:01:eb:c4:b3:69:4b:11:2b:4a:86:ea:
                    25:4c:ac:f4:3a:a8:21:8d:9e:b9:c6:ab:60:09:1f:
                    03:18:a8:ec:3a:59:b6:35:67:fe:95:61:1a:be:ff:
                    84:09:0e:a0:c1:c3:0e:a9:4d:b1:f2:fd:9b:7f:e7:
                    10:39:24:21:60:6f:0a:74:c7:5f:ec:22:39:f8:e5:
                    12:31:f4:c5:75:91:a6:b2:cd:52:2a:d0:82:96:01:
                    46:3d:ab:b3:d9:6e:87:fb:94:b6:10:49:c7:e2:21:
                    9f:ce:9e:0a:47:04:4d:4b:82:53:50:56:42:e1:74:
                    c8:86:98:32:b5:7f:08:fe:e1
                Exponent: 65537 (0x10001)
        X509v3 extensions:
            X509v3 Basic Constraints: 
                CA:FALSE
            Netscape Cert Type: 
                SSL Client, S/MIME
            Netscape Comment: 
                OpenSSL Generated Certificate
            X509v3 Subject Key Identifier: 
                3F:FF:B1:DC:FA:73:C9:D7:A0:26:84:1F:98:99:10:03:D6:11:4B:40
            X509v3 Authority Key Identifier: 
                keyid:A0:AE:12:B9:9F:82:8F:87:31:4C:93:F3:B8:69:D3:49:3D:CF:11:F4

    Signature Algorithm: sha1WithRSAEncryption
        44:75:fe:26:ce:ae:ff:2a:4d:2b:fa:3c:3e:29:0c:b8:ac:a0:
        3d:bc:94:ac:57:52:29:e6:a8:fc:18:ae:80:89:18:47:e9:b9:
        95:b2:c2:6e:eb:63:d5:3b:a5:f2:02:d7:11:83:d0:36:1e:61:
        a2:b2:c2:5b:b7:db:54:d4:49:b5:10:ea:f3:09:95:b3:97:2a:
        7e:c4:e0:9e:49:7a:98:ff:8e:9a:3f:fc:5e:22:26:6a:3d:2d:
        ab:fb:8f:28:37:62:a0:05:88:a1:04:47:d8:07:5e:22:a5:2e:
        fa:67:5a:dc:61:74:37:d9:15:bf:f2:28:db:a7:d3:e7:7c:76:
        ab:7c
-----BEGIN CERTIFICATE-----
MIIC/DCCAmWgAwIBAgIJALwu35k4V2UIMA0GCSqGSIb3DQEBBQUAMGUxCzAJBgNV
BAYTAkpQMQ4wDAYDVQQIEwVUb2t5bzEUMBIGA1UEChMLR2V0cGVyZiBjby4xEDAO
BgNVBAMTB2dldHBlcmYxHjAcBgkqhkiG9w0BCQEWD2Zyc3czbnJAbXNuLmNvbTAe
Fw0xMjAyMTAwNTE1MzBaFw0xMzAyMDkwNTE1MzBaMIGIMQswCQYDVQQGEwJKUDEO
MAwGA1UECBMFVG9reW8xFDASBgNVBAoTC0dldHBlcmYgY28uMRQwEgYDVQQLEwtH
ZXRwZXJmIGNvLjEdMBsGA1UEAxQUSVpBNTk3MV9fbWFhc2NhY3RpMDExHjAcBgkq
hkiG9w0BCQEWD2Zyc3czbnJAbXNuLmNvbTCBnzANBgkqhkiG9w0BAQEFAAOBjQAw
gYkCgYEAwU7MAevEs2lLEStKhuolTKz0OqghjZ65xqtgCR8DGKjsOlm2NWf+lWEa
vv+ECQ6gwcMOqU2x8v2bf+cQOSQhYG8KdMdf7CI5+OUSMfTFdZGmss1SKtCClgFG
Pauz2W6H+5S2EEnH4iGfzp4KRwRNS4JTUFZC4XTIhpgytX8I/uECAwEAAaOBjzCB
jDAJBgNVHRMEAjAAMBEGCWCGSAGG+EIBAQQEAwIFoDAsBglghkgBhvhCAQ0EHxYd
T3BlblNTTCBHZW5lcmF0ZWQgQ2VydGlmaWNhdGUwHQYDVR0OBBYEFD//sdz6c8nX
oCaEH5iZEAPWEUtAMB8GA1UdIwQYMBaAFKCuErmfgo+HMUyT87hp00k9zxH0MA0G
CSqGSIb3DQEBBQUAA4GBAER1/ibOrv8qTSv6PD4pDLisoD28lKxXUinmqPwYroCJ
GEfpuZWywm7rY9U7pfIC1xGD0DYeYaKywlu321TUSbUQ6vMJlbOXKn7E4J5Jepj/
jpo//F4iJmo9Lav7jyg3YqAFiKEER9gHXiKlLvpnWtxhdDfZFb/yKNun0+d8dqt8
-----END CERTIFICATE-----
-----BEGIN RSA PRIVATE KEY-----
MIICXgIBAAKBgQDBTswB68SzaUsRK0qG6iVMrPQ6qCGNnrnGq2AJHwMYqOw6WbY1
Z/6VYRq+/4QJDqDBww6pTbHy/Zt/5xA5JCFgbwp0x1/sIjn45RIx9MV1kaayzVIq
0IKWAUY9q7PZbof7lLYQScfiIZ/OngpHBE1LglNQVkLhdMiGmDK1fwj+4QIDAQAB
AoGBAKAf9G+W7B4tlygGszpklDcagUhhY0HbfEnsRaXokXkI3H1NONiuZz037Z7P
K4ERI+q899UYbdI5b2iYb2DV4+p8IxAPLbnNlHak4lrDQmWl0lzoisoMxbC0zE+v
Ci09o6rFRXoIlb8uwm17fGowxSBZm1nfKN4MegcNPRhvRyGtAkEA3/C364EF6p56
2D9BvLF90JV2BU42OhzIntnBi0tdbWNCvoHmzJOYkR/Q/WJn1claQIhbZkZl8caL
xUkb5JdSowJBANz7aj0y1qPP5FYSlmf0nRqJr8Ez5ZzRIjGRu1MPVUtZi4wzD9cY
dN7wCySiR9EnJZCG9FdCxfwdi45jZx2QxKsCQFAKObJy6ypwenfQJC7NQarLwOMk
kT00DIC6U/L1fO8cCz8MLvHvzxgPxyLJiVNgJGHsWr6zarx/unVJLC8H5wECQQCw
b7RlZH/njwc6ieC445/EHobLdYow6PGqLjconCd33+kBaYuOK6K0lWfwOfmpTt45
ROc1/MRjBZv1dfxQqNO9AkEAjK6nMQ5TAbYjXup243ZrMUdzDHIZH1H9iVAM6VnU
VTIzxT5CYYYAkeKDbJuw0zll8cPGznpyq5NhglYN5kprdg==
-----END RSA PRIVATE KEY-----
